Certificate:
    Data:
        Version: 3 (0x2)
        Serial Number:
            51:6c:c2:78:0d:8c:59:63:a4:35:0d:70:c6:2d:af:78:c4:44:06:a3
        Signature Algorithm: sha256WithRSAEncryption
        Issuer: C=IT, ST=Italy, O=Best Client CA, OU=www.bestclientCA.com, CN=BestClient Root CA
        Validity
            Not Before: Oct 17 20:20:49 2022 GMT
            Not After : Oct 16 20:20:49 2025 GMT
        Subject: C=IT, ST=Italy, O=Best Client CA, OU=www.bestclientCA.com, CN=BestClient Root CA
        Subject Public Key Info:
            Public Key Algorithm: rsaEncryption
                Public-Key: (2048 bit)
                Modulus:
                    00:90:fe:61:5b:cf:3f:ee:5a:ab:d1:27:8f:69:2f:
                    19:63:bf:42:4d:2a:19:9b:33:c5:cb:3d:8a:d6:ab:
                    21:20:b3:17:b3:ad:09:25:a1:4c:85:0d:8a:5e:fb:
                    2f:48:fb:5e:1e:17:df:09:74:46:33:ba:c2:c0:52:
                    3c:2c:bb:09:e4:13:f6:bb:bd:3a:a5:b0:50:27:2b:
                    bc:f1:97:e2:d1:21:ce:8c:27:40:e6:7e:f4:d9:59:
                    d9:d6:f2:fa:7a:f9:5c:ad:12:8c:82:10:fb:96:aa:
                    b7:b9:15:0e:61:d3:d4:b4:19:2b:72:6a:6d:ab:8e:
                    4b:97:59:8a:65:3c:58:d5:9b:27:45:04:f3:70:77:
                    c3:4c:56:3c:36:27:f4:3e:40:97:0a:61:45:49:06:
                    7e:42:f1:ae:72:4a:b9:60:6b:dd:21:47:27:5a:49:
                    c1:cb:83:5c:8b:05:93:cb:b5:57:4b:3b:9d:c6:d6:
                    6e:5b:d0:db:b6:96:86:ed:b8:c9:72:af:c2:f9:f1:
                    b8:40:4e:49:31:27:63:a2:c3:75:40:b6:7f:0c:2d:
                    47:c0:31:52:b7:7d:ad:a2:41:57:7a:26:eb:47:91:
                    50:af:6b:2b:fa:19:9f:89:3f:86:e3:94:1b:97:a6:
                    d2:54:a9:de:6e:aa:2b:36:e2:5e:3c:a7:ab:b1:57:
                    c5:41
                Exponent: 65537 (0x10001)
        X509v3 extensions:
            X509v3 Subject Key Identifier: 
                A5:FF:57:D2:32:14:4B:07:84:A0:D3:26:82:7C:2A:5B:F7:EB:42:48
            X509v3 Authority Key Identifier: 
                A5:FF:57:D2:32:14:4B:07:84:A0:D3:26:82:7C:2A:5B:F7:EB:42:48
            X509v3 Basic Constraints: critical
                CA:TRUE
    Signature Algorithm: sha256WithRSAEncryption
    Signature Value:
        2e:f3:42:fd:33:69:a9:64:b9:33:7f:8d:67:70:19:1a:40:83:
        63:a9:af:50:7b:4b:76:ee:a1:ea:83:b1:81:87:0b:0e:ab:ac:
        95:a8:04:8c:16:24:d3:51:3a:7e:97:3b:bc:ac:f8:28:c7:84:
        82:27:45:4c:61:cb:14:8d:c5:6e:94:cf:ac:d6:79:36:b6:7d:
        e0:a6:c9:b9:b8:1d:53:29:ec:c9:9d:f6:ae:68:ef:9f:68:7c:
        57:cf:89:52:04:e2:cf:59:fe:8f:f0:cc:73:f1:f0:a8:36:87:
        7a:1d:fb:82:6e:5d:db:2a:d0:af:16:50:5c:d5:18:f0:74:ba:
        20:64:73:79:bb:87:fe:98:26:e9:ec:ed:cd:82:c0:75:6f:85:
        83:9b:65:de:f2:d8:2a:ac:18:f9:a4:1b:81:fb:9a:9b:b4:0d:
        d6:98:c3:42:04:a4:32:08:75:2d:68:b8:8b:e8:c5:48:0f:de:
        76:70:0f:82:16:ea:2f:aa:5c:0b:c1:60:ae:63:22:b0:f1:18:
        47:69:5a:8b:60:83:ee:ec:6b:4b:5e:b7:c6:36:5f:1f:46:85:
        30:b1:52:2c:a8:01:79:4f:23:88:59:54:cf:90:9c:de:73:03:
        65:1d:0c:74:ef:a7:fa:86:b9:07:54:60:8e:cc:00:12:df:71:
        a2:85:e5:70
-----BEGIN CERTIFICATE-----
MIIDxTCCAq2gAwIBAgIUUWzCeA2MWWOkNQ1wxi2veMREBqMwDQYJKoZIhvcNAQEL
BQAwcjELMAkGA1UEBhMCSVQxDjAMBgNVBAgMBUl0YWx5MRcwFQYDVQQKDA5CZXN0
IENsaWVudCBDQTEdMBsGA1UECwwUd3d3LmJlc3RjbGllbnRDQS5jb20xGzAZBgNV
BAMMEkJlc3RDbGllbnQgUm9vdCBDQTAeFw0yMjEwMTcyMDIwNDlaFw0yNTEwMTYy
MDIwNDlaMHIxCzAJBgNVBAYTAklUMQ4wDAYDVQQIDAVJdGFseTEXMBUGA1UECgwO
QmVzdCBDbGllbnQgQ0ExHTAbBgNVBAsMFHd3dy5iZXN0Y2xpZW50Q0EuY29tMRsw
GQYDVQQDDBJCZXN0Q2xpZW50IFJvb3QgQ0EwggEiMA0GCSqGSIb3DQEBAQUAA4IB
DwAwggEKAoIBAQCQ/mFbzz/uWqvRJ49pLxljv0JNKhmbM8XLPYrWqyEgsxezrQkl
oUyFDYpe+y9I+14eF98JdEYzusLAUjwsuwnkE/a7vTqlsFAnK7zxl+LRIc6MJ0Dm
fvTZWdnW8vp6+VytEoyCEPuWqre5FQ5h09S0GStyam2rjkuXWYplPFjVmydFBPNw
d8NMVjw2J/Q+QJcKYUVJBn5C8a5ySrlga90hRydaScHLg1yLBZPLtVdLO53G1m5b
0Nu2lobtuMlyr8L58bhATkkxJ2Oiw3VAtn8MLUfAMVK3fa2iQVd6JutHkVCvayv6
GZ+JP4bjlBuXptJUqd5uqis24l48p6uxV8VBAgMBAAGjUzBRMB0GA1UdDgQWBBSl
/1fSMhRLB4Sg0yaCfCpb9+tCSDAfBgNVHSMEGDAWgBSl/1fSMhRLB4Sg0yaCfCpb
9+tCSDAPBgNVHRMBAf8EBTADAQH/MA0GCSqGSIb3DQEBCwUAA4IBAQAu80L9M2mp
ZLkzf41ncBkaQINjqa9Qe0t27qHqg7GBhwsOq6yVqASMFiTTUTp+lzu8rPgox4SC
J0VMYcsUjcVulM+s1nk2tn3gpsm5uB1TKezJnfauaO+faHxXz4lSBOLPWf6P8Mxz
8fCoNod6HfuCbl3bKtCvFlBc1RjwdLogZHN5u4f+mCbp7O3NgsB1b4WDm2Xe8tgq
rBj5pBuB+5qbtA3WmMNCBKQyCHUtaLiL6MVID952cA+CFuovqlwLwWCuYyKw8RhH
aVqLYIPu7GtLXrfGNl8fRoUwsVIsqAF5TyOIWVTPkJzecwNlHQx076f6hrkHVGCO
zAAS33GiheVw
-----END CERTIFICATE-----
