Certificate:
    Data:
        Version: 3 (0x2)
        Serial Number:
            7a:60:1c:c5:85:53:cb:a9:e8:f5:41:94:eb:d3:c5:1d:a7:b8:03:f4
        Signature Algorithm: sha256WithRSAEncryption
        Issuer: C=IT, ST=Italy, O=dvdroot ORG, OU=dvdroot_org_CA, CN=www.dvdroot.com
        Validity
            Not Before: Oct 18 09:15:10 2022 GMT
            Not After : Oct 18 09:15:10 2023 GMT
        Subject: C=IT, ST=Italy, L=Turin, O=dvdroot ORG, OU=dvdroot_org_SERVER, CN=www.coolwebsite.dvdroot.com
        Subject Public Key Info:
            Public Key Algorithm: rsaEncryption
                Public-Key: (2048 bit)
                Modulus:
                    00:b6:86:f6:a5:b1:15:e6:69:25:15:80:af:df:28:
                    de:28:98:93:05:a3:29:dd:63:9e:a9:e3:57:d3:47:
                    48:33:f3:50:17:1f:fc:bc:2e:de:2d:fd:6f:f5:0c:
                    a0:7c:f1:e1:ba:eb:fe:19:b0:34:98:93:03:85:94:
                    77:dd:5a:04:5b:69:1d:06:4e:8e:07:d9:14:ad:e1:
                    e3:57:c1:d2:3b:6e:d0:b9:2c:f2:99:32:1c:f8:65:
                    57:72:dd:7b:0c:76:e8:f9:0d:68:91:f2:16:47:7b:
                    00:d8:42:29:2b:80:14:e4:c5:3e:f4:4b:ce:b3:0a:
                    72:1c:dc:3e:af:59:fd:ca:7b:dd:8e:ed:5a:58:c0:
                    f2:17:47:ff:b8:ee:f6:9a:97:54:cc:04:c3:15:ec:
                    03:9c:6e:cf:41:7e:57:bf:fb:ae:d2:5c:c7:b3:9f:
                    25:3c:60:cc:6d:7e:cd:22:ef:6e:e3:3f:0c:cb:14:
                    dc:c1:2a:01:e6:82:14:00:b3:34:16:5e:f3:7b:1b:
                    56:0b:96:c9:17:94:44:d9:18:01:84:d4:af:9b:9a:
                    8e:c7:1a:80:47:38:73:ad:a8:57:bc:a0:5c:72:ff:
                    bd:c9:b8:98:b9:aa:6c:68:56:41:c9:37:22:84:3a:
                    98:b4:54:f3:98:55:bf:41:45:d4:8c:00:76:66:cb:
                    96:95
                Exponent: 65537 (0x10001)
        X509v3 extensions:
            X509v3 Basic Constraints: 
                CA:FALSE
            Netscape Comment: 
                OpenSSL Generated Certificate
            X509v3 Subject Key Identifier: 
                CC:48:0A:28:52:5B:BC:4D:AC:B0:96:FC:6D:CC:34:89:B4:10:CF:C0
            X509v3 Authority Key Identifier: 
                AB:B3:2A:B8:AE:91:F1:C1:FC:BC:7C:02:D2:A0:BB:7D:03:30:46:D7
    Signature Algorithm: sha256WithRSAEncryption
    Signature Value:
        03:0c:33:56:e9:4c:37:9e:e0:44:c9:c6:3c:a5:56:3b:cd:40:
        a8:5a:8f:66:f9:d5:b9:24:67:cd:cd:71:c6:a7:8c:d8:26:93:
        c3:95:67:1a:10:78:14:83:c5:dd:34:1a:84:22:13:69:75:c2:
        d2:1b:4f:26:5c:8f:02:2c:35:b0:e7:0e:f2:30:b0:02:02:60:
        65:30:d1:80:62:c1:d1:1f:5e:24:50:52:93:bb:8c:1a:72:33:
        fc:42:47:83:f8:89:ee:60:8c:c2:39:a8:5d:e4:18:30:e7:6f:
        90:9d:15:c4:a6:25:30:b1:fe:78:80:4b:76:0c:5b:37:b8:37:
        13:ee:ce:d1:4a:a0:0e:53:cf:f2:bb:cd:c3:5f:de:21:4c:1a:
        e1:64:04:c3:43:9c:bf:d4:ef:55:0c:bb:c9:2a:96:79:1e:e4:
        a5:65:c0:ca:dd:15:7c:c4:cc:5b:95:06:3e:9f:d7:73:d8:1d:
        6d:1c:3a:57:e9:f9:eb:4f:a4:36:4d:c1:1e:56:b9:f4:13:cc:
        4e:f1:94:9b:87:23:79:e4:94:59:97:f4:ed:38:0b:31:c3:2f:
        ca:df:af:09:ce:92:d4:e1:56:ca:ab:d5:6a:21:8f:5b:57:d8:
        99:6f:cc:22:2f:a3:aa:28:96:0c:d8:4a:76:e4:41:62:7e:64:
        1b:a0:79:37
-----BEGIN CERTIFICATE-----
MIID9jCCAt6gAwIBAgIUemAcxYVTy6no9UGU69PFHae4A/QwDQYJKoZIhvcNAQEL
BQAwZjELMAkGA1UEBhMCSVQxDjAMBgNVBAgMBUl0YWx5MRQwEgYDVQQKDAtkdmRy
b290IE9SRzEXMBUGA1UECwwOZHZkcm9vdF9vcmdfQ0ExGDAWBgNVBAMMD3d3dy5k
dmRyb290LmNvbTAeFw0yMjEwMTgwOTE1MTBaFw0yMzEwMTgwOTE1MTBaMIGGMQsw
CQYDVQQGEwJJVDEOMAwGA1UECAwFSXRhbHkxDjAMBgNVBAcMBVR1cmluMRQwEgYD
VQQKDAtkdmRyb290IE9SRzEbMBkGA1UECwwSZHZkcm9vdF9vcmdfU0VSVkVSMSQw
IgYDVQQDDBt3d3cuY29vbHdlYnNpdGUuZHZkcm9vdC5jb20wggEiMA0GCSqGSIb3
DQEBAQUAA4IBDwAwggEKAoIBAQC2hvalsRXmaSUVgK/fKN4omJMFoyndY56p41fT
R0gz81AXH/y8Lt4t/W/1DKB88eG66/4ZsDSYkwOFlHfdWgRbaR0GTo4H2RSt4eNX
wdI7btC5LPKZMhz4ZVdy3XsMduj5DWiR8hZHewDYQikrgBTkxT70S86zCnIc3D6v
Wf3Ke92O7VpYwPIXR/+47vaal1TMBMMV7AOcbs9Bfle/+67SXMeznyU8YMxtfs0i
727jPwzLFNzBKgHmghQAszQWXvN7G1YLlskXlETZGAGE1K+bmo7HGoBHOHOtqFe8
oFxy/73JuJi5qmxoVkHJNyKEOpi0VPOYVb9BRdSMAHZmy5aVAgMBAAGjezB5MAkG
A1UdEwQCMAAwLAYJYIZIAYb4QgENBB8WHU9wZW5TU0wgR2VuZXJhdGVkIENlcnRp
ZmljYXRlMB0GA1UdDgQWBBTMSAooUlu8TaywlvxtzDSJtBDPwDAfBgNVHSMEGDAW
gBSrsyq4rpHxwfy8fALSoLt9AzBG1zANBgkqhkiG9w0BAQsFAAOCAQEAAwwzVulM
N57gRMnGPKVWO81AqFqPZvnVuSRnzc1xxqeM2CaTw5VnGhB4FIPF3TQahCITaXXC
0htPJlyPAiw1sOcO8jCwAgJgZTDRgGLB0R9eJFBSk7uMGnIz/EJHg/iJ7mCMwjmo
XeQYMOdvkJ0VxKYlMLH+eIBLdgxbN7g3E+7O0UqgDlPP8rvNw1/eIUwa4WQEw0Oc
v9TvVQy7ySqWeR7kpWXAyt0VfMTMW5UGPp/Xc9gdbRw6V+n560+kNk3BHla59BPM
TvGUm4cjeeSUWZf07TgLMcMvyt+vCc6S1OFWyqvVaiGPW1fYmW/MIi+jqiiWDNhK
duRBYn5kG6B5Nw==
-----END CERTIFICATE-----
