Certificate:
    Data:
        Version: 3 (0x2)
        Serial Number:
            7a:60:1c:c5:85:53:cb:a9:e8:f5:41:94:eb:d3:c5:1d:a7:b8:03:f3
        Signature Algorithm: sha256WithRSAEncryption
        Issuer: C=IT, ST=Italy, O=dvdroot ORG, OU=dvdroot_org_CA, CN=www.dvdroot.com
        Validity
            Not Before: Oct 18 08:58:41 2022 GMT
            Not After : Oct 17 08:58:41 2025 GMT
        Subject: C=IT, ST=Italy, O=dvdroot ORG, OU=dvdroot_org_CA, CN=www.dvdroot.com
        Subject Public Key Info:
            Public Key Algorithm: rsaEncryption
                Public-Key: (2048 bit)
                Modulus:
                    00:9a:c5:b7:87:44:5a:25:01:75:ea:01:e3:c5:c3:
                    82:d8:64:94:4e:80:4b:c0:4d:35:4a:ed:1a:1c:0a:
                    93:df:46:c7:16:47:fb:ef:94:69:fc:11:70:bf:40:
                    09:8c:b7:9a:0c:60:77:31:0b:af:a2:45:8c:78:39:
                    4e:d1:b2:d9:44:58:d7:2c:a7:16:0c:cf:e1:e7:c7:
                    e0:9e:32:54:ee:32:9b:03:4f:b5:5c:a4:88:1a:d6:
                    98:25:f5:1a:6c:68:58:0a:f5:a4:d8:fe:79:7c:80:
                    35:6f:4c:ce:b8:3a:33:a9:05:c6:db:45:93:28:e3:
                    11:2a:45:b1:0b:9c:89:7a:a1:ff:b6:ea:bc:9b:33:
                    78:f3:f3:77:a4:db:69:5a:df:be:fc:48:81:ce:94:
                    38:7e:ba:d6:08:f6:7f:14:d6:34:c3:69:ac:d4:5d:
                    31:f8:dc:7b:7e:4e:18:b7:2b:e1:bf:d6:64:96:85:
                    72:7f:3d:48:0d:b0:72:da:cc:ab:9d:f9:ab:5b:0b:
                    fa:38:a9:d5:84:89:6c:d9:a7:c1:b6:6a:83:cb:9b:
                    a6:03:04:03:94:c8:88:46:7b:5a:ea:08:4a:84:e0:
                    70:fd:f5:76:6a:d8:89:31:ba:2a:fc:54:cd:54:27:
                    e6:1f:e8:73:61:aa:d4:82:aa:a1:b1:20:ff:24:b9:
                    d2:e1
                Exponent: 65537 (0x10001)
        X509v3 extensions:
            X509v3 Subject Key Identifier: 
                AB:B3:2A:B8:AE:91:F1:C1:FC:BC:7C:02:D2:A0:BB:7D:03:30:46:D7
            X509v3 Authority Key Identifier: 
                AB:B3:2A:B8:AE:91:F1:C1:FC:BC:7C:02:D2:A0:BB:7D:03:30:46:D7
            X509v3 Basic Constraints: critical
                CA:TRUE
    Signature Algorithm: sha256WithRSAEncryption
    Signature Value:
        9a:1c:59:66:04:3b:44:99:c8:6a:ac:f5:db:18:67:3a:17:bf:
        17:3a:ee:6c:e0:52:05:eb:40:51:84:cf:0a:3c:dc:c9:86:3d:
        24:6f:36:0d:28:a9:3a:0b:8e:87:c0:2b:52:31:6d:2c:45:5a:
        03:1f:7b:44:64:f4:f8:1f:f0:0e:04:ed:cd:2a:70:0b:94:3b:
        f8:10:4f:e5:11:62:fa:c5:25:b5:56:ac:5e:67:ff:71:6f:d9:
        13:81:74:52:8b:42:9b:d6:00:64:85:18:05:5c:6a:a6:5a:88:
        48:f4:5c:2b:ad:4d:6d:98:1d:13:c0:e5:78:87:e9:77:27:7f:
        9a:a6:90:6a:6f:1e:1d:87:55:bb:0f:b5:0d:ec:87:04:28:ba:
        53:ca:26:55:cf:c3:3b:af:cb:ef:da:4b:3b:0c:40:3c:eb:8f:
        22:f3:c1:6b:f5:a5:1c:23:80:89:75:53:9f:58:07:2e:2b:4f:
        5f:5c:3c:c9:6e:bc:e7:ee:ae:77:61:ff:f8:fb:ba:57:09:14:
        10:4f:26:19:0c:ce:e1:1d:a5:1f:9a:0c:aa:f8:71:4f:e3:ae:
        48:72:d8:21:a6:4d:39:45:b8:19:c1:c2:b4:99:6c:42:88:62:
        fe:b3:b2:ce:8f:f7:bf:48:f1:10:75:f0:f6:f6:a1:61:92:cb:
        e7:31:62:5e
-----BEGIN CERTIFICATE-----
MIIDrTCCApWgAwIBAgIUemAcxYVTy6no9UGU69PFHae4A/MwDQYJKoZIhvcNAQEL
BQAwZjELMAkGA1UEBhMCSVQxDjAMBgNVBAgMBUl0YWx5MRQwEgYDVQQKDAtkdmRy
b290IE9SRzEXMBUGA1UECwwOZHZkcm9vdF9vcmdfQ0ExGDAWBgNVBAMMD3d3dy5k
dmRyb290LmNvbTAeFw0yMjEwMTgwODU4NDFaFw0yNTEwMTcwODU4NDFaMGYxCzAJ
BgNVBAYTAklUMQ4wDAYDVQQIDAVJdGFseTEUMBIGA1UECgwLZHZkcm9vdCBPUkcx
FzAVBgNVBAsMDmR2ZHJvb3Rfb3JnX0NBMRgwFgYDVQQDDA93d3cuZHZkcm9vdC5j
b20wggEiMA0GCSqGSIb3DQEBAQUAA4IBDwAwggEKAoIBAQCaxbeHRFolAXXqAePF
w4LYZJROgEvATTVK7RocCpPfRscWR/vvlGn8EXC/QAmMt5oMYHcxC6+iRYx4OU7R
stlEWNcspxYMz+Hnx+CeMlTuMpsDT7VcpIga1pgl9RpsaFgK9aTY/nl8gDVvTM64
OjOpBcbbRZMo4xEqRbELnIl6of+26rybM3jz83ek22la3778SIHOlDh+utYI9n8U
1jTDaazUXTH43Ht+Thi3K+G/1mSWhXJ/PUgNsHLazKud+atbC/o4qdWEiWzZp8G2
aoPLm6YDBAOUyIhGe1rqCEqE4HD99XZq2Ikxuir8VM1UJ+Yf6HNhqtSCqqGxIP8k
udLhAgMBAAGjUzBRMB0GA1UdDgQWBBSrsyq4rpHxwfy8fALSoLt9AzBG1zAfBgNV
HSMEGDAWgBSrsyq4rpHxwfy8fALSoLt9AzBG1zAPBgNVHRMBAf8EBTADAQH/MA0G
CSqGSIb3DQEBCwUAA4IBAQCaHFlmBDtEmchqrPXbGGc6F78XOu5s4FIF60BRhM8K
PNzJhj0kbzYNKKk6C46HwCtSMW0sRVoDH3tEZPT4H/AOBO3NKnALlDv4EE/lEWL6
xSW1VqxeZ/9xb9kTgXRSi0Kb1gBkhRgFXGqmWohI9FwrrU1tmB0TwOV4h+l3J3+a
ppBqbx4dh1W7D7UN7IcEKLpTyiZVz8M7r8vv2ks7DEA8648i88Fr9aUcI4CJdVOf
WAcuK09fXDzJbrzn7q53Yf/4+7pXCRQQTyYZDM7hHaUfmgyq+HFP465Ictghpk05
RbgZwcK0mWxCiGL+s7LOj/e/SPEQdfD29qFhksvnMWJe
-----END CERTIFICATE-----
