Certificate:
    Data:
        Version: 3 (0x2)
        Serial Number:
            51:6c:c2:78:0d:8c:59:63:a4:35:0d:70:c6:2d:af:78:c4:44:06:a4
        Signature Algorithm: sha256WithRSAEncryption
        Issuer: C=IT, ST=Italy, O=Best Client CA, OU=www.bestclientCA.com, CN=BestClient Root CA
        Validity
            Not Before: Oct 17 20:22:45 2022 GMT
            Not After : Oct 17 20:22:45 2023 GMT
        Subject: C=IT, ST=Italy, L=Turin, O=Client Alice CE, OU=www.clientaliceCE.com, CN=ClientAlice Client CE
        Subject Public Key Info:
            Public Key Algorithm: rsaEncryption
                Public-Key: (2048 bit)
                Modulus:
                    00:b4:9e:a0:21:1a:01:ab:dc:fa:bc:9f:20:7c:39:
                    89:6f:6c:a3:62:be:c6:d0:ce:51:ad:1d:87:70:6b:
                    ea:8b:c6:dc:b4:c2:17:0f:9e:64:19:4d:1f:55:6e:
                    e6:57:a8:2d:a2:e8:3b:e7:e0:b4:c6:ee:b3:fb:f1:
                    f8:9f:a3:2f:0c:28:f6:11:47:d8:18:ce:40:7c:55:
                    b5:91:04:e8:d3:d3:38:9d:f4:a9:dc:94:69:2c:49:
                    5f:1e:cc:84:41:31:92:cb:63:42:18:54:f2:37:7e:
                    17:5a:5e:7f:55:2d:e0:b9:86:f0:77:d3:11:a0:22:
                    3a:90:cf:1d:ce:0f:1d:7a:2a:2f:6a:0a:86:7f:19:
                    a3:5e:38:7b:71:c2:fa:7b:42:0f:63:0b:1b:03:c2:
                    a1:63:85:7f:69:4e:ee:b7:90:34:b2:34:e8:eb:b9:
                    71:2b:d1:85:f0:52:32:ff:a8:7a:27:92:db:39:3c:
                    c6:c1:6f:7e:d1:90:87:d2:56:22:d2:7d:81:46:76:
                    ae:62:69:2e:03:2a:a1:3c:e2:89:a8:fb:99:b2:4c:
                    a9:8e:9a:89:3a:73:ee:1f:f6:bb:e5:73:4b:fd:a2:
                    f0:c0:ac:2b:30:a1:5b:b4:fe:eb:e2:23:76:54:cb:
                    2d:b2:1d:4c:c4:0a:10:67:56:da:d4:3c:50:4c:ad:
                    6b:4b
                Exponent: 65537 (0x10001)
        X509v3 extensions:
            X509v3 Basic Constraints: 
                CA:FALSE
            Netscape Comment: 
                OpenSSL Generated Certificate
            X509v3 Subject Key Identifier: 
                80:0F:8F:C9:F5:07:C2:B3:6D:53:13:44:D9:2A:FC:83:F4:D2:89:0C
            X509v3 Authority Key Identifier: 
                A5:FF:57:D2:32:14:4B:07:84:A0:D3:26:82:7C:2A:5B:F7:EB:42:48
    Signature Algorithm: sha256WithRSAEncryption
    Signature Value:
        4c:f8:5f:e7:6b:cf:cc:78:9e:d9:a2:3a:81:f5:7c:84:cc:a2:
        fc:45:68:e9:be:b5:68:e9:8a:f1:54:42:68:4b:da:cf:14:04:
        35:2c:4d:2f:04:44:b5:f6:f9:e0:fa:25:e1:b5:98:8b:9c:7b:
        39:b7:22:3c:e5:4b:7a:11:ae:43:f8:10:9e:be:2f:8f:70:75:
        fd:32:75:c4:dd:bb:52:b7:23:7f:42:2c:0c:6d:a5:4e:fa:4e:
        69:29:d6:01:78:8d:e3:90:6f:fb:e7:5c:b1:24:d6:2f:fc:6d:
        18:cf:9d:19:e5:02:af:a0:93:85:d4:27:e8:06:c9:e1:7c:cf:
        10:97:be:d5:cd:94:36:b7:30:c8:e9:78:04:be:bb:9e:b6:77:
        6c:a7:8b:7e:7f:fe:0e:0d:6b:15:cd:36:7a:b6:8b:15:7b:e6:
        b3:b8:09:5f:9f:6e:2c:19:3b:99:a4:41:e6:53:aa:45:f7:2f:
        51:07:85:ee:c4:31:c0:b8:17:b0:55:e7:30:63:19:1e:29:4f:
        81:73:93:ba:96:95:cd:0d:00:6a:14:e8:5a:3a:d0:bb:1c:97:
        10:bc:f5:ef:98:b9:be:da:05:dc:21:d9:58:63:82:3f:16:8e:
        2e:0e:22:9a:4d:0a:63:63:b4:f5:d7:f8:4e:33:93:08:4c:bd:
        e6:34:12:7f
-----BEGIN CERTIFICATE-----
MIIEAzCCAuugAwIBAgIUUWzCeA2MWWOkNQ1wxi2veMREBqQwDQYJKoZIhvcNAQEL
BQAwcjELMAkGA1UEBhMCSVQxDjAMBgNVBAgMBUl0YWx5MRcwFQYDVQQKDA5CZXN0
IENsaWVudCBDQTEdMBsGA1UECwwUd3d3LmJlc3RjbGllbnRDQS5jb20xGzAZBgNV
BAMMEkJlc3RDbGllbnQgUm9vdCBDQTAeFw0yMjEwMTcyMDIyNDVaFw0yMzEwMTcy
MDIyNDVaMIGHMQswCQYDVQQGEwJJVDEOMAwGA1UECAwFSXRhbHkxDjAMBgNVBAcM
BVR1cmluMRgwFgYDVQQKDA9DbGllbnQgQWxpY2UgQ0UxHjAcBgNVBAsMFXd3dy5j
bGllbnRhbGljZUNFLmNvbTEeMBwGA1UEAwwVQ2xpZW50QWxpY2UgQ2xpZW50IENF
MIIBIjANBgkqhkiG9w0BAQEFAAOCAQ8AMIIBCgKCAQEAtJ6gIRoBq9z6vJ8gfDmJ
b2yjYr7G0M5RrR2HcGvqi8bctMIXD55kGU0fVW7mV6gtoug75+C0xu6z+/H4n6Mv
DCj2EUfYGM5AfFW1kQTo09M4nfSp3JRpLElfHsyEQTGSy2NCGFTyN34XWl5/VS3g
uYbwd9MRoCI6kM8dzg8deiovagqGfxmjXjh7ccL6e0IPYwsbA8KhY4V/aU7ut5A0
sjTo67lxK9GF8FIy/6h6J5LbOTzGwW9+0ZCH0lYi0n2BRnauYmkuAyqhPOKJqPuZ
skypjpqJOnPuH/a75XNL/aLwwKwrMKFbtP7r4iN2VMstsh1MxAoQZ1ba1DxQTK1r
SwIDAQABo3sweTAJBgNVHRMEAjAAMCwGCWCGSAGG+EIBDQQfFh1PcGVuU1NMIEdl
bmVyYXRlZCBDZXJ0aWZpY2F0ZTAdBgNVHQ4EFgQUgA+PyfUHwrNtUxNE2Sr8g/TS
iQwwHwYDVR0jBBgwFoAUpf9X0jIUSweEoNMmgnwqW/frQkgwDQYJKoZIhvcNAQEL
BQADggEBAEz4X+drz8x4ntmiOoH1fITMovxFaOm+tWjpivFUQmhL2s8UBDUsTS8E
RLX2+eD6JeG1mIucezm3IjzlS3oRrkP4EJ6+L49wdf0ydcTdu1K3I39CLAxtpU76
Tmkp1gF4jeOQb/vnXLEk1i/8bRjPnRnlAq+gk4XUJ+gGyeF8zxCXvtXNlDa3MMjp
eAS+u562d2yni35//g4NaxXNNnq2ixV75rO4CV+fbiwZO5mkQeZTqkX3L1EHhe7E
McC4F7BV5zBjGR4pT4Fzk7qWlc0NAGoU6Fo60LsclxC89e+Yub7aBdwh2Vhjgj8W
ji4OIppNCmNjtPXX+E4zkwhMveY0En8=
-----END CERTIFICATE-----
