Certificate:
    Data:
        Version: 3 (0x2)
        Serial Number:
            aa:fc:2b:3c:35:8f:67:08:6e:38:12:ac:b6:4a:3a:99:a2:c9:56
        Signature Algorithm: sha256WithRSAEncryption
        Issuer: C=IT, ST=Italy, O=dvdr00t_CA, OU=www.dvdr00t.com, CN=dvdr00t Root CA
        Validity
            Not Before: Oct 17 19:17:00 2022 GMT
            Not After : Oct 16 19:17:00 2025 GMT
        Subject: C=IT, ST=Italy, O=dvdr00t_CA, OU=www.dvdr00t.com, CN=dvdr00t Root CA
        Subject Public Key Info:
            Public Key Algorithm: rsaEncryption
                Public-Key: (2048 bit)
                Modulus:
                    00:b4:a5:2e:30:21:53:be:63:5b:f0:80:89:f5:1a:
                    ae:dc:aa:5e:a2:f0:7c:c7:f1:db:67:f5:91:4b:ad:
                    72:1b:b9:5c:64:8d:39:2c:5b:4f:d1:51:e0:c8:77:
                    79:fa:d4:96:4f:f0:7e:3b:10:b1:5e:45:36:25:4d:
                    78:df:94:2c:67:0d:d4:c9:e0:cd:34:2e:f9:bb:63:
                    1e:b1:47:ce:e5:04:8a:5c:a0:e9:ec:f2:f4:f6:85:
                    42:95:0b:1d:d7:d8:b4:bc:db:af:0d:92:05:ff:5d:
                    52:d8:f1:b1:ac:66:21:55:a9:93:d1:fe:b6:2a:9c:
                    1f:da:91:af:38:b8:b8:c9:aa:0d:5c:a9:d7:48:09:
                    79:98:74:17:17:f0:98:9d:30:ec:a5:e8:46:14:54:
                    20:31:2b:73:79:95:b7:0f:fb:42:d8:e6:a9:94:21:
                    14:90:44:88:b5:e2:72:c7:96:bf:f1:69:47:a0:bd:
                    9f:ca:c3:0b:56:95:39:9f:8e:1b:88:ec:ca:2a:ba:
                    30:8d:8d:70:e4:23:24:cb:4e:24:68:c8:e0:ed:62:
                    78:ec:36:42:00:52:88:a3:5b:1e:71:e7:b7:a6:71:
                    13:39:35:5b:e5:42:e0:e7:4a:88:81:2c:e0:42:e7:
                    19:c0:ac:5b:da:7f:00:d7:40:cd:61:64:81:06:75:
                    df:63
                Exponent: 65537 (0x10001)
        X509v3 extensions:
            X509v3 Subject Key Identifier: 
                62:B5:D6:9E:27:BD:3D:7F:DC:9B:F9:DB:FB:57:95:1A:23:E9:97:84
            X509v3 Authority Key Identifier: 
                62:B5:D6:9E:27:BD:3D:7F:DC:9B:F9:DB:FB:57:95:1A:23:E9:97:84
            X509v3 Basic Constraints: critical
                CA:TRUE
    Signature Algorithm: sha256WithRSAEncryption
    Signature Value:
        48:8d:ee:13:17:88:65:92:1f:86:85:ed:4b:66:4d:2d:b9:d5:
        64:96:96:c7:1e:b7:99:b3:ae:ca:11:e5:18:2d:9c:7a:4f:56:
        6c:18:44:7d:31:e7:70:8a:b4:5f:7c:36:14:85:d9:52:46:b9:
        94:c8:af:56:7f:d7:23:11:93:ac:2c:04:62:e9:e2:5c:db:a2:
        90:e8:ce:4c:20:30:fa:34:59:e5:1c:ec:07:d8:16:88:15:59:
        40:65:23:9a:71:f4:66:74:12:9b:b9:d9:9e:21:d8:19:f1:9d:
        5a:f6:72:eb:fc:b1:f9:6c:d1:91:e1:1e:83:ca:22:28:35:e3:
        05:54:eb:90:a3:9b:b1:e1:fb:79:01:13:7b:b1:cd:2b:14:86:
        c0:f0:f3:cf:26:4b:c0:be:7f:a5:97:6c:d9:c2:fd:90:3e:fc:
        03:51:43:0e:fe:6c:d9:7a:91:2b:8d:45:2d:90:a3:ca:17:bf:
        91:63:b2:0e:59:0a:cf:21:67:25:14:26:36:ea:d6:53:5d:d3:
        32:ad:0e:4a:55:9d:a1:21:b5:d7:2a:8e:90:b1:1d:c4:4a:0e:
        10:23:a8:e3:f7:ee:a6:0f:c3:96:d9:c0:56:0c:48:f7:82:4b:
        68:76:f4:4f:b5:20:36:d0:dc:7e:84:e8:dc:26:c9:4e:60:86:
        78:7c:72:7d
-----BEGIN CERTIFICATE-----
MIIDrTCCApWgAwIBAgIUAKr8Kzw1j2cIbjgSrLZKOpmiyVYwDQYJKoZIhvcNAQEL
BQAwZjELMAkGA1UEBhMCSVQxDjAMBgNVBAgMBUl0YWx5MRMwEQYDVQQKDApkdmRy
MDB0X0NBMRgwFgYDVQQLDA93d3cuZHZkcjAwdC5jb20xGDAWBgNVBAMMD2R2ZHIw
MHQgUm9vdCBDQTAeFw0yMjEwMTcxOTE3MDBaFw0yNTEwMTYxOTE3MDBaMGYxCzAJ
BgNVBAYTAklUMQ4wDAYDVQQIDAVJdGFseTETMBEGA1UECgwKZHZkcjAwdF9DQTEY
MBYGA1UECwwPd3d3LmR2ZHIwMHQuY29tMRgwFgYDVQQDDA9kdmRyMDB0IFJvb3Qg
Q0EwggEiMA0GCSqGSIb3DQEBAQUAA4IBDwAwggEKAoIBAQC0pS4wIVO+Y1vwgIn1
Gq7cql6i8HzH8dtn9ZFLrXIbuVxkjTksW0/RUeDId3n61JZP8H47ELFeRTYlTXjf
lCxnDdTJ4M00Lvm7Yx6xR87lBIpcoOns8vT2hUKVCx3X2LS8268NkgX/XVLY8bGs
ZiFVqZPR/rYqnB/aka84uLjJqg1cqddICXmYdBcX8JidMOyl6EYUVCAxK3N5lbcP
+0LY5qmUIRSQRIi14nLHlr/xaUegvZ/KwwtWlTmfjhuI7MoqujCNjXDkIyTLTiRo
yODtYnjsNkIAUoijWx5x57emcRM5NVvlQuDnSoiBLOBC5xnArFvafwDXQM1hZIEG
dd9jAgMBAAGjUzBRMB0GA1UdDgQWBBRitdaeJ709f9yb+dv7V5UaI+mXhDAfBgNV
HSMEGDAWgBRitdaeJ709f9yb+dv7V5UaI+mXhDAPBgNVHRMBAf8EBTADAQH/MA0G
CSqGSIb3DQEBCwUAA4IBAQBIje4TF4hlkh+Ghe1LZk0tudVklpbHHreZs67KEeUY
LZx6T1ZsGER9MedwirRffDYUhdlSRrmUyK9Wf9cjEZOsLARi6eJc26KQ6M5MIDD6
NFnlHOwH2BaIFVlAZSOacfRmdBKbudmeIdgZ8Z1a9nLr/LH5bNGR4R6DyiIoNeMF
VOuQo5ux4ft5ARN7sc0rFIbA8PPPJkvAvn+ll2zZwv2QPvwDUUMO/mzZepErjUUt
kKPKF7+RY7IOWQrPIWclFCY26tZTXdMyrQ5KVZ2hIbXXKo6QsR3ESg4QI6jj9+6m
D8OW2cBWDEj3gktodvRPtSA20Nx+hOjcJslOYIZ4fHJ9
-----END CERTIFICATE-----
